target datalayout = "e-m:e-p270:32:32-p271:32:32-p272:64:64-i64:64-i128:128-f80:128-n8:16:32:64-S128"
target triple = "x86_64-pc-linux-gnu"

; Function Attrs: mustprogress nounwind uwtable
define dso_local noundef ptr @_ZN5cmsys11SystemTools14FindLastStringEPKcS2_(ptr noundef %0, ptr noundef %1) #4 align 2 {
  %3 = alloca ptr, align 8
  %4 = alloca ptr, align 8
  %5 = alloca ptr, align 8
  %6 = alloca i64, align 8
  %7 = alloca i64, align 8
  %8 = alloca ptr, align 8
  %9 = alloca i32, align 4
  store ptr %0, ptr %4, align 8, !tbaa !13
  store ptr %1, ptr %5, align 8, !tbaa !13
  %10 = load ptr, ptr %4, align 8, !tbaa !13
  %11 = icmp ne ptr %10, null
  br i1 %11, label %12, label %15

12:                                               ; preds = %2
  %13 = load ptr, ptr %5, align 8, !tbaa !13
  %14 = icmp ne ptr %13, null
  br i1 %14, label %16, label %15

15:                                               ; preds = %12, %2
  store ptr null, ptr %3, align 8
  br label %51

16:                                               ; preds = %12
  call void @llvm.lifetime.start.p0(i64 8, ptr %6) #1
  %17 = load ptr, ptr %4, align 8, !tbaa !13
  %18 = call i64 @strlen(ptr noundef %17) #24
  store i64 %18, ptr %6, align 8, !tbaa !15
  call void @llvm.lifetime.start.p0(i64 8, ptr %7) #1
  %19 = load ptr, ptr %5, align 8, !tbaa !13
  %20 = call i64 @strlen(ptr noundef %19) #24
  store i64 %20, ptr %7, align 8, !tbaa !15
  %21 = load i64, ptr %6, align 8, !tbaa !15
  %22 = load i64, ptr %7, align 8, !tbaa !15
  %23 = icmp uge i64 %21, %22
  br i1 %23, label %24, label %49

24:                                               ; preds = %16
  call void @llvm.lifetime.start.p0(i64 8, ptr %8) #1
  %25 = load ptr, ptr %4, align 8, !tbaa !13
  %26 = load i64, ptr %6, align 8, !tbaa !15
  %27 = getelementptr inbounds nuw i8, ptr %25, i64 %26
  %28 = load i64, ptr %7, align 8, !tbaa !15
  %29 = sub i64 0, %28
  %30 = getelementptr inbounds i8, ptr %27, i64 %29
  store ptr %30, ptr %8, align 8, !tbaa !13
  br label %31

31:                                               ; preds = %40, %24
  %32 = load ptr, ptr %8, align 8, !tbaa !13
  %33 = load ptr, ptr %5, align 8, !tbaa !13
  %34 = load i64, ptr %7, align 8, !tbaa !15
  %35 = call i32 @strncmp(ptr noundef %32, ptr noundef %33, i64 noundef %34) #24
  %36 = icmp ne i32 %35, 0
  br i1 %36, label %39, label %37

37:                                               ; preds = %31
  %38 = load ptr, ptr %8, align 8, !tbaa !13
  store ptr %38, ptr %3, align 8
  store i32 1, ptr %9, align 4
  br label %46

39:                                               ; preds = %31
  br label %40

40:                                               ; preds = %39
  %41 = load ptr, ptr %8, align 8, !tbaa !13
  %42 = getelementptr inbounds i8, ptr %41, i32 -1
  store ptr %42, ptr %8, align 8, !tbaa !13
  %43 = load ptr, ptr %4, align 8, !tbaa !13
  %44 = icmp ne ptr %41, %43
  br i1 %44, label %31, label %45, !llvm.loop !90

45:                                               ; preds = %40
  store i32 0, ptr %9, align 4
  br label %46

46:                                               ; preds = %45, %37
  call void @llvm.lifetime.end.p0(i64 8, ptr %8) #1
  %47 = load i32, ptr %9, align 4
  switch i32 %47, label %50 [
    i32 0, label %48
  ]

48:                                               ; preds = %46
  br label %49

49:                                               ; preds = %48, %16
  store ptr null, ptr %3, align 8
  store i32 1, ptr %9, align 4
  br label %50

50:                                               ; preds = %49, %46
  call void @llvm.lifetime.end.p0(i64 8, ptr %7) #1
  call void @llvm.lifetime.end.p0(i64 8, ptr %6) #1
  br label %51

51:                                               ; preds = %50, %15
  %52 = load ptr, ptr %3, align 8
  ret ptr %52
}