; Function Attrs: mustprogress nofree nounwind willreturn memory(argmem: read) uwtable
define dso_local noundef ptr @_ZN5cmsys11SystemTools14FindLastStringEPKcS2_(ptr noundef readonly %0, ptr noundef readonly %1) local_unnamed_addr #22 align 2 {
  %3 = icmp ne ptr %0, null
  %4 = icmp ne ptr %1, null
  %or.cond = and i1 %3, %4
  br i1 %or.cond, label %5, label %.critedge

5:                                                ; preds = %2
  %6 = tail call i64 @strlen(ptr noundef nonnull dereferenceable(1) %0) #43
  %7 = tail call i64 @strlen(ptr noundef nonnull dereferenceable(1) %1) #43
  %.not = icmp ult i64 %6, %7
  br i1 %.not, label %.critedge, label %8

8:                                                ; preds = %5
  %9 = getelementptr inbounds nuw i8, ptr %0, i64 %6
  %10 = sub i64 0, %7
  %11 = getelementptr inbounds i8, ptr %9, i64 %10
  br label %12

12:                                               ; preds = %14, %8
  %.017 = phi ptr [ %11, %8 ], [ %15, %14 ]
  %13 = tail call i32 @strncmp(ptr noundef %.017, ptr noundef nonnull %1, i64 noundef %7) #43
  %.not23.not = icmp eq i32 %13, 0
  br i1 %.not23.not, label %.critedge, label %14

14:                                               ; preds = %12
  %15 = getelementptr inbounds i8, ptr %.017, i64 -1
  %.not24 = icmp eq ptr %.017, %0
  br i1 %.not24, label %.critedge, label %12, !llvm.loop !68

.critedge:                                        ; preds = %14, %12, %5, %2
  %.018 = phi ptr [ null, %2 ], [ null, %5 ], [ null, %14 ], [ %.017, %12 ]
  ret ptr %.018
}